target datalayout = "e-m:e-p270:32:32-p271:32:32-p272:64:64-i64:64-i128:128-f80:128-n8:16:32:64-S128"
target triple = "x86_64-pc-linux-gnu"

%struct._packet_info = type { ptr, ptr, i32, i32, %struct.nstime_t, %struct.nstime_t, %struct.nstime_t, i8, ptr, ptr, ptr, ptr, %struct._address, %struct._address, %struct._address, %struct._address, %struct._address, %struct._address, i32, ptr, i8, [3 x i8], %struct.anon, i32, i32, i32, i32, ptr, i8, ptr, ptr, i16, i16, i32, i32, i16, i32, i32, ptr, ptr, ptr, i8, i8, i16, i16, i16, i32, i16, i16, ptr, ptr, ptr, ptr, ptr, i32, i32 }
%struct.nstime_t = type { i64, i32 }
%struct._address = type { i32, i32, ptr, ptr }
%struct.anon = type { i8, [3 x i8] }

@hf_cba_acco_count = internal global i32 0, align 4
@hf_cba_acco_item = internal global i32 0, align 4
@hf_cba_acco_data = internal global i32 0, align 4
@hf_cba_acco_qc = internal global i32 0, align 4
@hf_cba_acco_time_stamp = internal global i32 0, align 4
@hf_cba_writeitemin = internal global i32 0, align 4
@ett_cba_writeitemin = hidden global i32 0, align 4
@.str.260 = private unnamed_addr constant [9 x i8] c": Cnt=%u\00", align 1
@.str.347 = private unnamed_addr constant [8 x i8] c"Unknown\00", align 1
@.str.349 = private unnamed_addr constant [31 x i8] c"[%u]: Item=\22%s\22 QC=%s (0x%02x)\00", align 1

; Function Attrs: null_pointer_is_valid sspstrong uwtable
define internal i32 @dissect_ICBAAccoSync_WriteItemsQCD_rqst(ptr noundef %0, i32 noundef %1, ptr noundef %2, ptr noundef %3, ptr noundef %4, ptr noundef %5) #0 {
  %7 = alloca ptr, align 8
  %8 = alloca i32, align 4
  %9 = alloca ptr, align 8
  %10 = alloca ptr, align 8
  %11 = alloca ptr, align 8
  %12 = alloca ptr, align 8
  %13 = alloca i32, align 4
  %14 = alloca i32, align 4
  %15 = alloca [1000 x i8], align 16
  %16 = alloca i32, align 4
  %17 = alloca i32, align 4
  %18 = alloca i32, align 4
  %19 = alloca i32, align 4
  %20 = alloca i32, align 4
  %21 = alloca i16, align 2
  %22 = alloca ptr, align 8
  %23 = alloca ptr, align 8
  store ptr %0, ptr %7, align 8
  store i32 %1, ptr %8, align 4
  store ptr %2, ptr %9, align 8
  store ptr %3, ptr %10, align 8
  store ptr %4, ptr %11, align 8
  store ptr %5, ptr %12, align 8
  call void @llvm.lifetime.start.p0(i64 4, ptr %13) #12
  call void @llvm.lifetime.start.p0(i64 4, ptr %14) #12
  call void @llvm.lifetime.start.p0(i64 1000, ptr %15) #12
  call void @llvm.lifetime.start.p0(i64 4, ptr %16) #12
  store i32 1000, ptr %16, align 4
  call void @llvm.lifetime.start.p0(i64 4, ptr %17) #12
  call void @llvm.lifetime.start.p0(i64 4, ptr %18) #12
  call void @llvm.lifetime.start.p0(i64 4, ptr %19) #12
  call void @llvm.lifetime.start.p0(i64 4, ptr %20) #12
  call void @llvm.lifetime.start.p0(i64 2, ptr %21) #12
  %24 = load ptr, ptr %7, align 8
  %25 = load i32, ptr %8, align 4
  %26 = load ptr, ptr %9, align 8
  %27 = load ptr, ptr %10, align 8
  %28 = load ptr, ptr %11, align 8
  %29 = load ptr, ptr %12, align 8
  %30 = call i32 @dissect_dcom_this(ptr noundef %24, i32 noundef %25, ptr noundef %26, ptr noundef %27, ptr noundef %28, ptr noundef %29)
  store i32 %30, ptr %8, align 4
  %31 = load ptr, ptr %7, align 8
  %32 = load i32, ptr %8, align 4
  %33 = load ptr, ptr %9, align 8
  %34 = load ptr, ptr %10, align 8
  %35 = load ptr, ptr %11, align 8
  %36 = load ptr, ptr %12, align 8
  %37 = load i32, ptr @hf_cba_acco_count, align 4
  %38 = call i32 @dissect_ndr_uint32(ptr noundef %31, i32 noundef %32, ptr noundef %33, ptr noundef %34, ptr noundef %35, ptr noundef %36, i32 noundef %37, ptr noundef %13)
  store i32 %38, ptr %8, align 4
  %39 = load ptr, ptr %7, align 8
  %40 = load i32, ptr %8, align 4
  %41 = load ptr, ptr %9, align 8
  %42 = load ptr, ptr %10, align 8
  %43 = load ptr, ptr %11, align 8
  %44 = load ptr, ptr %12, align 8
  %45 = call i32 @dissect_dcom_dcerpc_array_size(ptr noundef %39, i32 noundef %40, ptr noundef %41, ptr noundef %42, ptr noundef %43, ptr noundef %44, ptr noundef %14)
  store i32 %45, ptr %8, align 4
  %46 = load i32, ptr %8, align 4
  %47 = load i32, ptr %14, align 4
  %48 = mul i32 %47, 20
  %49 = add i32 %46, %48
  store i32 %49, ptr %18, align 4
  store i32 1, ptr %20, align 4
  br label %50

50:                                               ; preds = %103, %6
  %51 = load i32, ptr %14, align 4
  %52 = add i32 %51, -1
  store i32 %52, ptr %14, align 4
  %53 = icmp ne i32 %51, 0
  br i1 %53, label %54, label %134

54:                                               ; preds = %50
  call void @llvm.lifetime.start.p0(i64 8, ptr %22) #12
  call void @llvm.lifetime.start.p0(i64 8, ptr %23) #12
  %55 = load ptr, ptr %10, align 8
  %56 = load i32, ptr @hf_cba_writeitemin, align 4
  %57 = load ptr, ptr %7, align 8
  %58 = load i32, ptr %8, align 4
  %59 = call ptr @proto_tree_add_item(ptr noundef %55, i32 noundef %56, ptr noundef %57, i32 noundef %58, i32 noundef 0, i32 noundef 0)
  store ptr %59, ptr %22, align 8
  %60 = load ptr, ptr %22, align 8
  %61 = load i32, ptr @ett_cba_writeitemin, align 4
  %62 = call ptr @proto_item_add_subtree(ptr noundef %60, i32 noundef %61)
  store ptr %62, ptr %23, align 8
  %63 = load i32, ptr %8, align 4
  store i32 %63, ptr %19, align 4
  %64 = load ptr, ptr %7, align 8
  %65 = load i32, ptr %8, align 4
  %66 = load ptr, ptr %9, align 8
  %67 = load ptr, ptr %23, align 8
  %68 = load ptr, ptr %11, align 8
  %69 = load ptr, ptr %12, align 8
  %70 = call i32 @dissect_dcom_dcerpc_pointer(ptr noundef %64, i32 noundef %65, ptr noundef %66, ptr noundef %67, ptr noundef %68, ptr noundef %69, ptr noundef %17)
  store i32 %70, ptr %8, align 4
  %71 = load i32, ptr %17, align 4
  %72 = icmp ne i32 %71, 0
  br i1 %72, label %73, label %84

73:                                               ; preds = %54
  %74 = load ptr, ptr %7, align 8
  %75 = load i32, ptr %18, align 4
  %76 = load ptr, ptr %9, align 8
  %77 = load ptr, ptr %23, align 8
  %78 = load ptr, ptr %11, align 8
  %79 = load ptr, ptr %12, align 8
  %80 = load i32, ptr @hf_cba_acco_item, align 4
  %81 = getelementptr inbounds [1000 x i8], ptr %15, i64 0, i64 0
  %82 = load i32, ptr %16, align 4
  %83 = call i32 @dissect_dcom_LPWSTR(ptr noundef %74, i32 noundef %75, ptr noundef %76, ptr noundef %77, ptr noundef %78, ptr noundef %79, i32 noundef %80, ptr noundef %81, i32 noundef %82)
  store i32 %83, ptr %18, align 4
  br label %84

84:                                               ; preds = %73, %54
  %85 = load ptr, ptr %7, align 8
  %86 = load i32, ptr %8, align 4
  %87 = load ptr, ptr %9, align 8
  %88 = load ptr, ptr %23, align 8
  %89 = load ptr, ptr %11, align 8
  %90 = load ptr, ptr %12, align 8
  %91 = call i32 @dissect_dcom_dcerpc_pointer(ptr noundef %85, i32 noundef %86, ptr noundef %87, ptr noundef %88, ptr noundef %89, ptr noundef %90, ptr noundef %17)
  store i32 %91, ptr %8, align 4
  %92 = load i32, ptr %17, align 4
  %93 = icmp ne i32 %92, 0
  br i1 %93, label %94, label %103

94:                                               ; preds = %84
  %95 = load ptr, ptr %7, align 8
  %96 = load i32, ptr %18, align 4
  %97 = load ptr, ptr %9, align 8
  %98 = load ptr, ptr %23, align 8
  %99 = load ptr, ptr %11, align 8
  %100 = load ptr, ptr %12, align 8
  %101 = load i32, ptr @hf_cba_acco_data, align 4
  %102 = call i32 @dissect_dcom_VARIANT(ptr noundef %95, i32 noundef %96, ptr noundef %97, ptr noundef %98, ptr noundef %99, ptr noundef %100, i32 noundef %101)
  store i32 %102, ptr %18, align 4
  br label %103

103:                                              ; preds = %94, %84
  %104 = load ptr, ptr %7, align 8
  %105 = load i32, ptr %8, align 4
  %106 = load ptr, ptr %9, align 8
  %107 = load ptr, ptr %23, align 8
  %108 = load ptr, ptr %11, align 8
  %109 = load ptr, ptr %12, align 8
  %110 = load i32, ptr @hf_cba_acco_qc, align 4
  %111 = call i32 @dissect_ndr_uint16(ptr noundef %104, i32 noundef %105, ptr noundef %106, ptr noundef %107, ptr noundef %108, ptr noundef %109, i32 noundef %110, ptr noundef %21)
  store i32 %111, ptr %8, align 4
  %112 = load ptr, ptr %7, align 8
  %113 = load i32, ptr %8, align 4
  %114 = load ptr, ptr %9, align 8
  %115 = load ptr, ptr %23, align 8
  %116 = load ptr, ptr %11, align 8
  %117 = load ptr, ptr %12, align 8
  %118 = load i32, ptr @hf_cba_acco_time_stamp, align 4
  %119 = call i32 @dissect_ndr_duint32(ptr noundef %112, i32 noundef %113, ptr noundef %114, ptr noundef %115, ptr noundef %116, ptr noundef %117, i32 noundef %118, ptr noundef null)
  store i32 %119, ptr %8, align 4
  %120 = load ptr, ptr %22, align 8
  %121 = load i32, ptr %20, align 4
  %122 = getelementptr inbounds [1000 x i8], ptr %15, i64 0, i64 0
  %123 = load i16, ptr %21, align 2
  %124 = zext i16 %123 to i32
  %125 = call ptr @val_to_str_const(i32 noundef %124, ptr noundef @cba_acco_qc_vals, ptr noundef @.str.347)
  %126 = load i16, ptr %21, align 2
  %127 = zext i16 %126 to i32
  call void (ptr, ptr, ...) @proto_item_append_text(ptr noundef %120, ptr noundef @.str.349, i32 noundef %121, ptr noundef %122, ptr noundef %125, i32 noundef %127)
  %128 = load ptr, ptr %22, align 8
  %129 = load i32, ptr %8, align 4
  %130 = load i32, ptr %19, align 4
  %131 = sub i32 %129, %130
  call void @proto_item_set_len(ptr noundef %128, i32 noundef %131)
  %132 = load i32, ptr %20, align 4
  %133 = add i32 %132, 1
  store i32 %133, ptr %20, align 4
  call void @llvm.lifetime.end.p0(i64 8, ptr %23) #12
  call void @llvm.lifetime.end.p0(i64 8, ptr %22) #12
  br label %50, !llvm.loop !61

134:                                              ; preds = %50
  %135 = load ptr, ptr %9, align 8
  %136 = getelementptr inbounds nuw %struct._packet_info, ptr %135, i32 0, i32 1
  %137 = load ptr, ptr %136, align 8
  %138 = load i32, ptr %13, align 4
  call void (ptr, i32, ptr, ...) @col_append_fstr(ptr noundef %137, i32 noundef 25, ptr noundef @.str.260, i32 noundef %138)
  %139 = load i32, ptr %18, align 4
  call void @llvm.lifetime.end.p0(i64 2, ptr %21) #12
  call void @llvm.lifetime.end.p0(i64 4, ptr %20) #12
  call void @llvm.lifetime.end.p0(i64 4, ptr %19) #12
  call void @llvm.lifetime.end.p0(i64 4, ptr %18) #12
  call void @llvm.lifetime.end.p0(i64 4, ptr %17) #12
  call void @llvm.lifetime.end.p0(i64 4, ptr %16) #12
  call void @llvm.lifetime.end.p0(i64 1000, ptr %15) #12
  call void @llvm.lifetime.end.p0(i64 4, ptr %14) #12
  call void @llvm.lifetime.end.p0(i64 4, ptr %13) #12
  ret i32 %139
}