; Function Attrs: null_pointer_is_valid sspstrong uwtable
define internal i32 @dissect_ICBAAccoSync_WriteItemsQCD_rqst(ptr noundef %0, i32 noundef %1, ptr noundef %2, ptr noundef %3, ptr noundef %4, ptr noundef %5) #0 {
  %7 = alloca i32, align 4
  %8 = alloca i32, align 4
  %9 = alloca [1000 x i8], align 16
  %10 = alloca i32, align 4
  %11 = alloca i16, align 2
  call void @llvm.lifetime.start.p0(i64 4, ptr nonnull %7) #12
  call void @llvm.lifetime.start.p0(i64 4, ptr nonnull %8) #12
  call void @llvm.lifetime.start.p0(i64 1000, ptr nonnull %9) #12
  call void @llvm.lifetime.start.p0(i64 4, ptr nonnull %10) #12
  call void @llvm.lifetime.start.p0(i64 2, ptr nonnull %11) #12
  %12 = tail call i32 @dissect_dcom_this(ptr noundef %0, i32 noundef %1, ptr noundef %2, ptr noundef %3, ptr noundef %4, ptr noundef %5)
  %13 = load i32, ptr @hf_cba_acco_count, align 4
  %14 = call i32 @dissect_ndr_uint32(ptr noundef %0, i32 noundef %12, ptr noundef %2, ptr noundef %3, ptr noundef %4, ptr noundef %5, i32 noundef %13, ptr noundef nonnull %7)
  %15 = call i32 @dissect_dcom_dcerpc_array_size(ptr noundef %0, i32 noundef %14, ptr noundef %2, ptr noundef %3, ptr noundef %4, ptr noundef %5, ptr noundef nonnull %8)
  %16 = load i32, ptr %8, align 4
  %17 = mul i32 %16, 20
  %18 = add i32 %17, %15
  %19 = add i32 %16, -1
  store i32 %19, ptr %8, align 4
  %.not72 = icmp eq i32 %16, 0
  br i1 %.not72, label %._crit_edge, label %.lr.ph

.lr.ph:                                           ; preds = %6, %35
  %.075 = phi i32 [ %39, %35 ], [ %15, %6 ]
  %.06874 = phi i32 [ %.2, %35 ], [ %18, %6 ]
  %.06973 = phi i32 [ %46, %35 ], [ 1, %6 ]
  %20 = load i32, ptr @hf_cba_writeitemin, align 4
  %21 = call ptr @proto_tree_add_item(ptr noundef %3, i32 noundef %20, ptr noundef %0, i32 noundef %.075, i32 noundef 0, i32 noundef 0)
  %22 = load i32, ptr @ett_cba_writeitemin, align 4
  %23 = call ptr @proto_item_add_subtree(ptr noundef %21, i32 noundef %22)
  %24 = call i32 @dissect_dcom_dcerpc_pointer(ptr noundef %0, i32 noundef %.075, ptr noundef %2, ptr noundef %23, ptr noundef %4, ptr noundef %5, ptr noundef nonnull %10)
  %25 = load i32, ptr %10, align 4
  %.not70 = icmp eq i32 %25, 0
  br i1 %.not70, label %29, label %26

26:                                               ; preds = %.lr.ph
  %27 = load i32, ptr @hf_cba_acco_item, align 4
  %28 = call i32 @dissect_dcom_LPWSTR(ptr noundef %0, i32 noundef %.06874, ptr noundef %2, ptr noundef %23, ptr noundef %4, ptr noundef %5, i32 noundef %27, ptr noundef nonnull %9, i32 noundef 1000)
  br label %29

29:                                               ; preds = %26, %.lr.ph
  %.1 = phi i32 [ %28, %26 ], [ %.06874, %.lr.ph ]
  %30 = call i32 @dissect_dcom_dcerpc_pointer(ptr noundef %0, i32 noundef %24, ptr noundef %2, ptr noundef %23, ptr noundef %4, ptr noundef %5, ptr noundef nonnull %10)
  %31 = load i32, ptr %10, align 4
  %.not71 = icmp eq i32 %31, 0
  br i1 %.not71, label %35, label %32

32:                                               ; preds = %29
  %33 = load i32, ptr @hf_cba_acco_data, align 4
  %34 = call i32 @dissect_dcom_VARIANT(ptr noundef %0, i32 noundef %.1, ptr noundef %2, ptr noundef %23, ptr noundef %4, ptr noundef %5, i32 noundef %33)
  br label %35

35:                                               ; preds = %32, %29
  %.2 = phi i32 [ %34, %32 ], [ %.1, %29 ]
  %36 = load i32, ptr @hf_cba_acco_qc, align 4
  %37 = call i32 @dissect_ndr_uint16(ptr noundef %0, i32 noundef %30, ptr noundef %2, ptr noundef %23, ptr noundef %4, ptr noundef %5, i32 noundef %36, ptr noundef nonnull %11)
  %38 = load i32, ptr @hf_cba_acco_time_stamp, align 4
  %39 = call i32 @dissect_ndr_duint32(ptr noundef %0, i32 noundef %37, ptr noundef %2, ptr noundef %23, ptr noundef %4, ptr noundef %5, i32 noundef %38, ptr noundef null)
  %40 = load i16, ptr %11, align 2
  %41 = zext i16 %40 to i32
  %42 = call ptr @val_to_str_const(i32 noundef %41, ptr noundef nonnull @cba_acco_qc_vals, ptr noundef nonnull @.str.347)
  %43 = load i16, ptr %11, align 2
  %44 = zext i16 %43 to i32
  call void (ptr, ptr, ...) @proto_item_append_text(ptr noundef %21, ptr noundef nonnull @.str.349, i32 noundef %.06973, ptr noundef nonnull %9, ptr noundef %42, i32 noundef %44)
  %45 = sub i32 %39, %.075
  call void @proto_item_set_len(ptr noundef %21, i32 noundef %45)
  %46 = add i32 %.06973, 1
  %.pr = load i32, ptr %8, align 4
  %47 = add i32 %.pr, -1
  store i32 %47, ptr %8, align 4
  %.not = icmp eq i32 %.pr, 0
  br i1 %.not, label %._crit_edge, label %.lr.ph, !llvm.loop !58

._crit_edge:                                      ; preds = %35, %6
  %.068.lcssa = phi i32 [ %18, %6 ], [ %.2, %35 ]
  %48 = getelementptr inbounds nuw i8, ptr %2, i64 8
  %49 = load ptr, ptr %48, align 8
  %50 = load i32, ptr %7, align 4
  call void (ptr, i32, ptr, ...) @col_append_fstr(ptr noundef %49, i32 noundef 25, ptr noundef nonnull @.str.260, i32 noundef %50)
  call void @llvm.lifetime.end.p0(i64 2, ptr nonnull %11) #12
  call void @llvm.lifetime.end.p0(i64 4, ptr nonnull %10) #12
  call void @llvm.lifetime.end.p0(i64 1000, ptr nonnull %9) #12
  call void @llvm.lifetime.end.p0(i64 4, ptr nonnull %8) #12
  call void @llvm.lifetime.end.p0(i64 4, ptr nonnull %7) #12
  ret i32 %.068.lcssa
}